# Copyright (C) 2021  optiMEAS GmbH. All rights reserved.
#
# SPDX-License-Identifier: GPL-2.0-only

Certificate:
    Data:
        Version: 3 (0x2)
        Serial Number: 1 (0x1)
    Signature Algorithm: sha256WithRSAEncryption
        Issuer: O=Test Org, CN=Test Org rauc CA Development
        Validity
            Not Before: Jan  1 00:00:00 1970 GMT
            Not After : Dec 31 23:59:59 9999 GMT
        Subject: O=Test Org, CN=Test Org rauc CA Development
        Subject Public Key Info:
            Public Key Algorithm: rsaEncryption
                Public-Key: (2048 bit)
                Modulus:
                    00:e0:8d:d2:62:71:3b:ab:fa:88:a0:1e:63:f5:37:
                    54:75:14:0e:ad:03:7d:3a:63:93:d7:b5:56:f9:b4:
                    71:2a:fc:e5:ba:c1:0f:33:24:c2:7b:19:14:f0:e5:
                    c9:93:7e:f6:10:58:8e:a3:90:eb:17:5d:95:ad:ec:
                    98:d7:e9:ca:78:01:13:ff:b0:f5:b9:19:97:61:53:
                    3c:e3:be:b5:83:b9:68:3f:4d:7a:c2:c7:9d:e2:c5:
                    eb:e1:68:25:84:2a:0b:1b:91:88:dd:a0:59:e0:6b:
                    78:5a:07:e9:57:bd:04:af:ab:3e:f3:25:a6:3a:a5:
                    4e:08:29:53:d1:b4:a8:9f:c0:bb:15:82:67:01:55:
                    01:5b:af:a1:53:a5:43:16:9a:72:0b:ea:b6:a6:fb:
                    65:ed:a9:05:2f:b4:49:66:87:2e:a3:4c:c2:d5:60:
                    92:bf:05:b4:23:cd:68:51:7a:fc:c8:8c:66:2a:a1:
                    28:d6:db:52:dc:a2:bb:44:e7:89:f9:d3:b9:8f:62:
                    9e:4d:e0:ca:86:0c:bf:01:80:e7:a1:c7:19:45:98:
                    d4:76:2f:82:38:48:18:08:dd:2e:14:1c:c6:3d:e1:
                    07:f3:52:f0:4b:23:cd:de:b0:58:66:8e:27:69:28:
                    b0:54:2f:9a:96:ba:8c:26:0a:4d:55:d1:53:16:dd:
                    8a:31
                Exponent: 65537 (0x10001)
        X509v3 extensions:
            X509v3 Subject Key Identifier: 
                0C:01:80:61:C1:4F:D9:55:AA:B8:D9:DB:F4:93:79:B5:9C:99:D9:3D
            X509v3 Authority Key Identifier: 
                keyid:0C:01:80:61:C1:4F:D9:55:AA:B8:D9:DB:F4:93:79:B5:9C:99:D9:3D
                DirName:/O=Test Org/CN=Test Org rauc CA Development
                serial:01

            X509v3 Basic Constraints: 
                CA:TRUE
    Signature Algorithm: sha256WithRSAEncryption
         66:f8:56:ee:be:d3:a6:90:de:46:12:90:80:27:04:f7:77:c2:
         a0:a4:e0:dd:86:40:5f:4b:82:1c:ea:b8:84:3d:a7:8b:a9:83:
         c0:05:f7:71:a4:b9:3c:a1:33:73:33:60:f6:bb:88:b3:7c:93:
         b3:0d:31:74:e5:4c:1e:82:16:8c:f0:9c:19:d8:57:a5:ea:6a:
         7d:92:28:74:74:f3:de:d4:3c:4b:a4:82:0a:4f:af:de:3d:1b:
         a7:62:d3:04:ec:6c:4d:ba:ad:97:7f:fe:4d:53:41:c3:d2:68:
         65:6a:61:96:c9:de:3c:1e:a4:64:df:92:b8:d7:48:53:21:20:
         2e:fd:89:67:32:51:95:27:5e:2e:28:57:a7:ad:2c:6a:c2:64:
         35:0a:f9:a5:40:72:f8:28:c2:77:da:a7:80:1f:fe:9a:c3:c4:
         98:d2:2a:48:34:a1:9c:d7:07:5a:b1:84:77:fd:b0:7e:2b:a0:
         cb:88:8f:fe:34:6a:86:e9:39:c1:d6:79:ae:47:f4:f5:70:02:
         dd:0d:23:6d:29:11:e1:2a:dc:06:b9:ea:f7:f1:7c:33:ba:2c:
         ca:55:0e:97:1c:5a:6c:3f:07:f0:fc:b9:c9:7e:2a:d4:31:7b:
         ff:d9:ed:63:0b:14:7e:df:b1:d9:c8:78:bf:8d:1f:63:80:d4:
         b9:b2:5a:55
-----BEGIN CERTIFICATE-----
MIIDiDCCAnCgAwIBAgIBATANBgkqhkiG9w0BAQsFADA6MREwDwYDVQQKDAhUZXN0
IE9yZzElMCMGA1UEAwwcVGVzdCBPcmcgcmF1YyBDQSBEZXZlbG9wbWVudDAiGA8x
OTcwMDEwMTAwMDAwMFoYDzk5OTkxMjMxMjM1OTU5WjA6MREwDwYDVQQKDAhUZXN0
IE9yZzElMCMGA1UEAwwcVGVzdCBPcmcgcmF1YyBDQSBEZXZlbG9wbWVudDCCASIw
DQYJKoZIhvcNAQEBBQADggEPADCCAQoCggEBAOCN0mJxO6v6iKAeY/U3VHUUDq0D
fTpjk9e1Vvm0cSr85brBDzMkwnsZFPDlyZN+9hBYjqOQ6xddla3smNfpyngBE/+w
9bkZl2FTPOO+tYO5aD9NesLHneLF6+FoJYQqCxuRiN2gWeBreFoH6Ve9BK+rPvMl
pjqlTggpU9G0qJ/AuxWCZwFVAVuvoVOlQxaacgvqtqb7Ze2pBS+0SWaHLqNMwtVg
kr8FtCPNaFF6/MiMZiqhKNbbUtyiu0TnifnTuY9ink3gyoYMvwGA56HHGUWY1HYv
gjhIGAjdLhQcxj3hB/NS8Esjzd6wWGaOJ2kosFQvmpa6jCYKTVXRUxbdijECAwEA
AaOBlDCBkTAdBgNVHQ4EFgQUDAGAYcFP2VWquNnb9JN5tZyZ2T0wYgYDVR0jBFsw
WYAUDAGAYcFP2VWquNnb9JN5tZyZ2T2hPqQ8MDoxETAPBgNVBAoMCFRlc3QgT3Jn
MSUwIwYDVQQDDBxUZXN0IE9yZyByYXVjIENBIERldmVsb3BtZW50ggEBMAwGA1Ud
EwQFMAMBAf8wDQYJKoZIhvcNAQELBQADggEBAGb4Vu6+06aQ3kYSkIAnBPd3wqCk
4N2GQF9LghzquIQ9p4upg8AF93GkuTyhM3MzYPa7iLN8k7MNMXTlTB6CFozwnBnY
V6Xqan2SKHR0897UPEukggpPr949G6di0wTsbE26rZd//k1TQcPSaGVqYZbJ3jwe
pGTfkrjXSFMhIC79iWcyUZUnXi4oV6etLGrCZDUK+aVAcvgownfap4Af/prDxJjS
Kkg0oZzXB1qxhHf9sH4roMuIj/40aobpOcHWea5H9PVwAt0NI20pEeEq3Aa56vfx
fDO6LMpVDpccWmw/B/D8ucl+KtQxe//Z7WMLFH7fsdnIeL+NH2OA1LmyWlU=
-----END CERTIFICATE-----
